target datalayout = "e-m:e-p270:32:32-p271:32:32-p272:64:64-i64:64-i128:128-f80:128-n8:16:32:64-S128"
target triple = "x86_64-pc-linux-gnu"

%struct.Qureg = type { i32, i32, i32, i64, i64, i32, i32, %struct.ComplexArray, %struct.ComplexArray, %struct.ComplexArray, ptr, ptr, ptr, ptr, ptr, ptr }
%struct.ComplexArray = type { ptr, ptr }
%struct.QASMLogger = type { ptr, i32, i32, i32 }
%struct.Complex = type { double, double }

; Function Attrs: nounwind uwtable
define void @qasm_recordControlledCompactUnitary(ptr noundef byval(%struct.Qureg) align 8 %0, double %1, double %2, double %3, double %4, i32 noundef %5, i32 noundef %6) #0 {
  %8 = alloca %struct.Complex, align 8
  %9 = alloca %struct.Complex, align 8
  %10 = alloca i32, align 4
  %11 = alloca i32, align 4
  %12 = alloca double, align 8
  %13 = alloca double, align 8
  %14 = alloca double, align 8
  %15 = alloca [1 x i32], align 4
  %16 = alloca [3 x double], align 16
  %17 = getelementptr inbounds nuw { double, double }, ptr %8, i32 0, i32 0
  store double %1, ptr %17, align 8
  %18 = getelementptr inbounds nuw { double, double }, ptr %8, i32 0, i32 1
  store double %2, ptr %18, align 8
  %19 = getelementptr inbounds nuw { double, double }, ptr %9, i32 0, i32 0
  store double %3, ptr %19, align 8
  %20 = getelementptr inbounds nuw { double, double }, ptr %9, i32 0, i32 1
  store double %4, ptr %20, align 8
  store i32 %5, ptr %10, align 4, !tbaa !25
  store i32 %6, ptr %11, align 4, !tbaa !25
  %21 = getelementptr inbounds nuw %struct.Qureg, ptr %0, i32 0, i32 15
  %22 = load ptr, ptr %21, align 8, !tbaa !10
  %23 = getelementptr inbounds nuw %struct.QASMLogger, ptr %22, i32 0, i32 3
  %24 = load i32, ptr %23, align 8, !tbaa !17
  %25 = icmp ne i32 %24, 0
  br i1 %25, label %27, label %26

26:                                               ; preds = %7
  br label %45

27:                                               ; preds = %7
  call void @llvm.lifetime.start.p0(i64 8, ptr %12) #7
  call void @llvm.lifetime.start.p0(i64 8, ptr %13) #7
  call void @llvm.lifetime.start.p0(i64 8, ptr %14) #7
  %28 = getelementptr inbounds nuw { double, double }, ptr %8, i32 0, i32 0
  %29 = load double, ptr %28, align 8
  %30 = getelementptr inbounds nuw { double, double }, ptr %8, i32 0, i32 1
  %31 = load double, ptr %30, align 8
  %32 = getelementptr inbounds nuw { double, double }, ptr %9, i32 0, i32 0
  %33 = load double, ptr %32, align 8
  %34 = getelementptr inbounds nuw { double, double }, ptr %9, i32 0, i32 1
  %35 = load double, ptr %34, align 8
  call void @getZYZRotAnglesFromComplexPair(double %29, double %31, double %33, double %35, ptr noundef %12, ptr noundef %13, ptr noundef %14)
  call void @llvm.lifetime.start.p0(i64 4, ptr %15) #7
  %36 = load i32, ptr %10, align 4, !tbaa !25
  store i32 %36, ptr %15, align 4, !tbaa !25
  call void @llvm.lifetime.start.p0(i64 24, ptr %16) #7
  %37 = load double, ptr %12, align 8, !tbaa !29
  store double %37, ptr %16, align 8, !tbaa !29
  %38 = getelementptr inbounds double, ptr %16, i64 1
  %39 = load double, ptr %13, align 8, !tbaa !29
  store double %39, ptr %38, align 8, !tbaa !29
  %40 = getelementptr inbounds double, ptr %16, i64 2
  %41 = load double, ptr %14, align 8, !tbaa !29
  store double %41, ptr %40, align 8, !tbaa !29
  %42 = getelementptr inbounds [1 x i32], ptr %15, i64 0, i64 0
  %43 = load i32, ptr %11, align 4, !tbaa !25
  %44 = getelementptr inbounds [3 x double], ptr %16, i64 0, i64 0
  call void @addGateToQASM(ptr noundef byval(%struct.Qureg) align 8 %0, i32 noundef 10, ptr noundef %42, i32 noundef 1, i32 noundef %43, ptr noundef %44, i32 noundef 3)
  call void @llvm.lifetime.end.p0(i64 24, ptr %16) #7
  call void @llvm.lifetime.end.p0(i64 4, ptr %15) #7
  call void @llvm.lifetime.end.p0(i64 8, ptr %14) #7
  call void @llvm.lifetime.end.p0(i64 8, ptr %13) #7
  call void @llvm.lifetime.end.p0(i64 8, ptr %12) #7
  br label %45

45:                                               ; preds = %27, %26
  ret void
}